target datalayout = "e-m:e-p270:32:32-p271:32:32-p272:64:64-i64:64-i128:128-f80:128-n8:16:32:64-S128"
target triple = "x86_64-pc-linux-gnu"

%struct.opj_dparameters = type { i32, i32, [4096 x i8], [4096 x i8], i32, i32, i32, i32, i32, i32, i32, i32, i32, i32, i32, i32, i32 }

; Function Attrs: nounwind uwtable
define hidden void @opj_set_default_decoder_parameters(ptr noundef %0) #0 {
  %2 = alloca ptr, align 8
  store ptr %0, ptr %2, align 8, !tbaa !28
  %3 = load ptr, ptr %2, align 8, !tbaa !28
  %4 = icmp ne ptr %3, null
  br i1 %4, label %5, label %17

5:                                                ; preds = %1
  %6 = load ptr, ptr %2, align 8, !tbaa !28
  call void @llvm.memset.p0.i64(ptr align 4 %6, i8 0, i64 8252, i1 false)
  %7 = load ptr, ptr %2, align 8, !tbaa !28
  %8 = getelementptr inbounds nuw %struct.opj_dparameters, ptr %7, i32 0, i32 1
  store i32 0, ptr %8, align 4, !tbaa !30
  %9 = load ptr, ptr %2, align 8, !tbaa !28
  %10 = getelementptr inbounds nuw %struct.opj_dparameters, ptr %9, i32 0, i32 0
  store i32 0, ptr %10, align 4, !tbaa !32
  %11 = load ptr, ptr %2, align 8, !tbaa !28
  %12 = getelementptr inbounds nuw %struct.opj_dparameters, ptr %11, i32 0, i32 4
  store i32 -1, ptr %12, align 4, !tbaa !33
  %13 = load ptr, ptr %2, align 8, !tbaa !28
  %14 = getelementptr inbounds nuw %struct.opj_dparameters, ptr %13, i32 0, i32 5
  store i32 -1, ptr %14, align 4, !tbaa !34
  %15 = load ptr, ptr %2, align 8, !tbaa !28
  %16 = getelementptr inbounds nuw %struct.opj_dparameters, ptr %15, i32 0, i32 16
  store i32 0, ptr %16, align 4, !tbaa !35
  br label %17

17:                                               ; preds = %5, %1
  ret void
}