; Function Attrs: mustprogress nofree norecurse nosync nounwind willreturn memory(argmem: write) uwtable
define hidden void @opj_set_default_decoder_parameters(ptr noundef writeonly %0) local_unnamed_addr #0 {
  %.not = icmp eq ptr %0, null
  br i1 %.not, label %6, label %2

2:                                                ; preds = %1
  %3 = getelementptr inbounds nuw i8, ptr %0, i64 8200
  tail call void @llvm.memset.p0.i64(ptr noundef nonnull align 4 dereferenceable(8248) %0, i8 0, i64 8248, i1 false)
  store i32 -1, ptr %3, align 4, !tbaa !22
  %4 = getelementptr inbounds nuw i8, ptr %0, i64 8204
  store i32 -1, ptr %4, align 4, !tbaa !24
  %5 = getelementptr inbounds nuw i8, ptr %0, i64 8248
  store i32 0, ptr %5, align 4, !tbaa !25
  br label %6

6:                                                ; preds = %2, %1
  ret void
}